target datalayout = "e-m:e-p270:32:32-p271:32:32-p272:64:64-i64:64-i128:128-f80:128-n8:16:32:64-S128"
target triple = "x86_64-pc-linux-gnu"

%class.GrowableArrayView = type { %class.GrowableArrayBase, ptr }
%class.GrowableArrayBase = type { i32, i32 }

@_ZN2os5Linux12_cpu_to_nodeE = hidden global ptr null, align 8
@_ZN2os5Linux13_sched_getcpuE = hidden global ptr null, align 8

; Function Attrs: mustprogress nounwind uwtable
define linkonce_odr hidden noundef nonnull align 4 dereferenceable(4) ptr @_ZN17GrowableArrayViewIiE2atEi(ptr noundef nonnull align 8 dereferenceable(16) %0, i32 noundef %1) #1 comdat align 2 {
  %3 = alloca ptr, align 8
  %4 = alloca i32, align 4
  store ptr %0, ptr %3, align 8
  store i32 %1, ptr %4, align 4
  %5 = load ptr, ptr %3, align 8
  %6 = getelementptr inbounds %class.GrowableArrayView, ptr %5, i32 0, i32 1
  %7 = load ptr, ptr %6, align 8
  %8 = load i32, ptr %4, align 4
  %9 = sext i32 %8 to i64
  %10 = getelementptr inbounds i32, ptr %7, i64 %9
  ret ptr %10
}

; Function Attrs: mustprogress nounwind uwtable
define linkonce_odr hidden noundef i32 @_ZNK17GrowableArrayBase6lengthEv(ptr noundef nonnull align 4 dereferenceable(8) %0) #1 comdat align 2 {
  %2 = alloca ptr, align 8
  store ptr %0, ptr %2, align 8
  %3 = load ptr, ptr %2, align 8
  %4 = getelementptr inbounds %class.GrowableArrayBase, ptr %3, i32 0, i32 0
  %5 = load i32, ptr %4, align 4
  ret i32 %5
}

; Function Attrs: mustprogress nounwind uwtable
define linkonce_odr hidden noundef ptr @_ZN2os5Linux11cpu_to_nodeEv() #1 comdat align 2 {
  %1 = load ptr, ptr @_ZN2os5Linux12_cpu_to_nodeE, align 8
  ret ptr %1
}

; Function Attrs: mustprogress nounwind uwtable
define hidden noundef i32 @_ZN2os5Linux15get_node_by_cpuEi(i32 noundef %0) #1 align 2 {
  %2 = alloca i32, align 4
  %3 = alloca i32, align 4
  store i32 %0, ptr %3, align 4
  %4 = call noundef ptr @_ZN2os5Linux11cpu_to_nodeEv()
  %5 = icmp ne ptr %4, null
  br i1 %5, label %6, label %19

6:                                                ; preds = %1
  %7 = load i32, ptr %3, align 4
  %8 = icmp sge i32 %7, 0
  br i1 %8, label %9, label %19

9:                                                ; preds = %6
  %10 = load i32, ptr %3, align 4
  %11 = call noundef ptr @_ZN2os5Linux11cpu_to_nodeEv()
  %12 = call noundef i32 @_ZNK17GrowableArrayBase6lengthEv(ptr noundef nonnull align 4 dereferenceable(8) %11)
  %13 = icmp slt i32 %10, %12
  br i1 %13, label %14, label %19

14:                                               ; preds = %9
  %15 = call noundef ptr @_ZN2os5Linux11cpu_to_nodeEv()
  %16 = load i32, ptr %3, align 4
  %17 = call noundef nonnull align 4 dereferenceable(4) ptr @_ZN17GrowableArrayViewIiE2atEi(ptr noundef nonnull align 8 dereferenceable(16) %15, i32 noundef %16)
  %18 = load i32, ptr %17, align 4
  store i32 %18, ptr %2, align 4
  br label %20

19:                                               ; preds = %9, %6, %1
  store i32 -1, ptr %2, align 4
  br label %20

20:                                               ; preds = %19, %14
  %21 = load i32, ptr %2, align 4
  ret i32 %21
}

; Function Attrs: mustprogress nounwind uwtable
define linkonce_odr hidden noundef i32 @_ZN2os5Linux12sched_getcpuEv() #1 comdat align 2 {
  %1 = load ptr, ptr @_ZN2os5Linux13_sched_getcpuE, align 8
  %2 = icmp ne ptr %1, null
  br i1 %2, label %3, label %6

3:                                                ; preds = %0
  %4 = load ptr, ptr @_ZN2os5Linux13_sched_getcpuE, align 8
  %5 = call noundef i32 %4()
  br label %7

6:                                                ; preds = %0
  br label %7

7:                                                ; preds = %6, %3
  %8 = phi i32 [ %5, %3 ], [ -1, %6 ]
  ret i32 %8
}

; Function Attrs: mustprogress nounwind uwtable
define hidden noundef i32 @_ZN2os17numa_get_group_idEv() #1 align 2 {
  %1 = alloca i32, align 4
  %2 = alloca i32, align 4
  %3 = alloca i32, align 4
  %4 = call noundef i32 @_ZN2os5Linux12sched_getcpuEv()
  store i32 %4, ptr %2, align 4
  %5 = load i32, ptr %2, align 4
  %6 = icmp ne i32 %5, -1
  br i1 %6, label %7, label %15

7:                                                ; preds = %0
  %8 = load i32, ptr %2, align 4
  %9 = call noundef i32 @_ZN2os5Linux15get_node_by_cpuEi(i32 noundef %8)
  store i32 %9, ptr %3, align 4
  %10 = load i32, ptr %3, align 4
  %11 = icmp ne i32 %10, -1
  br i1 %11, label %12, label %14

12:                                               ; preds = %7
  %13 = load i32, ptr %3, align 4
  store i32 %13, ptr %1, align 4
  br label %16

14:                                               ; preds = %7
  br label %15

15:                                               ; preds = %14, %0
  store i32 0, ptr %1, align 4
  br label %16

16:                                               ; preds = %15, %12
  %17 = load i32, ptr %1, align 4
  ret i32 %17
}