; Function Attrs: mustprogress nounwind uwtable
define hidden noundef range(i32 0, -1) i32 @_ZN2os17numa_get_group_idEv() local_unnamed_addr #0 align 2 {
  %1 = load ptr, ptr @_ZN2os5Linux13_sched_getcpuE, align 8
  %.not.i = icmp eq ptr %1, null
  br i1 %.not.i, label %_ZN2os5Linux12sched_getcpuEv.exit.thread, label %_ZN2os5Linux12sched_getcpuEv.exit

_ZN2os5Linux12sched_getcpuEv.exit:                ; preds = %0
  %2 = tail call noundef i32 %1() #26
  %.not = icmp eq i32 %2, -1
  br i1 %.not, label %_ZN2os5Linux12sched_getcpuEv.exit.thread, label %3

3:                                                ; preds = %_ZN2os5Linux12sched_getcpuEv.exit
  %4 = load ptr, ptr @_ZN2os5Linux12_cpu_to_nodeE, align 8
  %5 = icmp ne ptr %4, null
  %6 = icmp sgt i32 %2, -1
  %or.cond.i = and i1 %6, %5
  br i1 %or.cond.i, label %7, label %_ZN2os5Linux12sched_getcpuEv.exit.thread

7:                                                ; preds = %3
  %8 = load i32, ptr %4, align 4
  %9 = icmp sgt i32 %8, %2
  br i1 %9, label %_ZN2os5Linux15get_node_by_cpuEi.exit, label %_ZN2os5Linux12sched_getcpuEv.exit.thread

_ZN2os5Linux15get_node_by_cpuEi.exit:             ; preds = %7
  %10 = getelementptr inbounds i8, ptr %4, i64 8
  %11 = load ptr, ptr %10, align 8
  %12 = zext nneg i32 %2 to i64
  %13 = getelementptr inbounds i32, ptr %11, i64 %12
  %14 = load i32, ptr %13, align 4
  %.not7 = icmp eq i32 %14, -1
  br i1 %.not7, label %_ZN2os5Linux12sched_getcpuEv.exit.thread, label %15

_ZN2os5Linux12sched_getcpuEv.exit.thread:         ; preds = %3, %7, %0, %_ZN2os5Linux15get_node_by_cpuEi.exit, %_ZN2os5Linux12sched_getcpuEv.exit
  br label %15

15:                                               ; preds = %_ZN2os5Linux15get_node_by_cpuEi.exit, %_ZN2os5Linux12sched_getcpuEv.exit.thread
  %.0 = phi i32 [ 0, %_ZN2os5Linux12sched_getcpuEv.exit.thread ], [ %14, %_ZN2os5Linux15get_node_by_cpuEi.exit ]
  ret i32 %.0
}